target datalayout = "e-m:e-p270:32:32-p271:32:32-p272:64:64-i64:64-i128:128-f80:128-n8:16:32:64-S128"
target triple = "x86_64-pc-linux-gnu"

%struct.curl_blob = type { ptr, i64, i32 }

; Function Attrs: nounwind uwtable
define internal zeroext i1 @blobcmp(ptr noundef %0, ptr noundef %1) #0 {
  %3 = alloca i1, align 1
  %4 = alloca ptr, align 8
  %5 = alloca ptr, align 8
  store ptr %0, ptr %4, align 8
  store ptr %1, ptr %5, align 8
  %6 = load ptr, ptr %4, align 8
  %7 = icmp ne ptr %6, null
  br i1 %7, label %12, label %8

8:                                                ; preds = %2
  %9 = load ptr, ptr %5, align 8
  %10 = icmp ne ptr %9, null
  br i1 %10, label %12, label %11

11:                                               ; preds = %8
  store i1 true, ptr %3, align 1
  br label %41

12:                                               ; preds = %8, %2
  %13 = load ptr, ptr %4, align 8
  %14 = icmp ne ptr %13, null
  br i1 %14, label %15, label %18

15:                                               ; preds = %12
  %16 = load ptr, ptr %5, align 8
  %17 = icmp ne ptr %16, null
  br i1 %17, label %19, label %18

18:                                               ; preds = %15, %12
  store i1 false, ptr %3, align 1
  br label %41

19:                                               ; preds = %15
  %20 = load ptr, ptr %4, align 8
  %21 = getelementptr inbounds %struct.curl_blob, ptr %20, i32 0, i32 1
  %22 = load i64, ptr %21, align 8
  %23 = load ptr, ptr %5, align 8
  %24 = getelementptr inbounds %struct.curl_blob, ptr %23, i32 0, i32 1
  %25 = load i64, ptr %24, align 8
  %26 = icmp ne i64 %22, %25
  br i1 %26, label %27, label %28

27:                                               ; preds = %19
  store i1 false, ptr %3, align 1
  br label %41

28:                                               ; preds = %19
  %29 = load ptr, ptr %4, align 8
  %30 = getelementptr inbounds %struct.curl_blob, ptr %29, i32 0, i32 0
  %31 = load ptr, ptr %30, align 8
  %32 = load ptr, ptr %5, align 8
  %33 = getelementptr inbounds %struct.curl_blob, ptr %32, i32 0, i32 0
  %34 = load ptr, ptr %33, align 8
  %35 = load ptr, ptr %4, align 8
  %36 = getelementptr inbounds %struct.curl_blob, ptr %35, i32 0, i32 1
  %37 = load i64, ptr %36, align 8
  %38 = call i32 @memcmp(ptr noundef %31, ptr noundef %34, i64 noundef %37) #6
  %39 = icmp ne i32 %38, 0
  %40 = xor i1 %39, true
  store i1 %40, ptr %3, align 1
  br label %41

41:                                               ; preds = %28, %27, %18, %11
  %42 = load i1, ptr %3, align 1
  ret i1 %42
}