; Function Attrs: mustprogress nofree nounwind willreturn memory(read, inaccessiblemem: none) uwtable
define internal fastcc zeroext i1 @blobcmp(ptr noundef readonly %0, ptr noundef readonly %1) unnamed_addr #12 {
  %3 = icmp ne ptr %0, null
  %4 = icmp ne ptr %1, null
  %or.cond = or i1 %3, %4
  br i1 %or.cond, label %5, label %14

5:                                                ; preds = %2
  %or.cond3 = and i1 %3, %4
  br i1 %or.cond3, label %6, label %14

6:                                                ; preds = %5
  %7 = getelementptr inbounds nuw i8, ptr %0, i64 8
  %8 = load i64, ptr %7, align 8
  %9 = getelementptr inbounds nuw i8, ptr %1, i64 8
  %10 = load i64, ptr %9, align 8
  %.not = icmp eq i64 %8, %10
  br i1 %.not, label %11, label %14

11:                                               ; preds = %6
  %12 = load ptr, ptr %0, align 8
  %13 = load ptr, ptr %1, align 8
  %bcmp = tail call i32 @bcmp(ptr %12, ptr %13, i64 %8)
  %.not16 = icmp eq i32 %bcmp, 0
  br label %14

14:                                               ; preds = %6, %5, %2, %11
  %.0 = phi i1 [ %.not16, %11 ], [ true, %2 ], [ false, %5 ], [ false, %6 ]
  ret i1 %.0
}